; Function Attrs: mustprogress uwtable
define noundef nonnull align 8 dereferenceable(8) ptr @_ZN3gmx29DensityFittingAmplitudeLookupaSERKS0_(ptr noundef nonnull returned align 8 dereferenceable(8) %0, ptr nocapture noundef nonnull readonly align 8 dereferenceable(8) %1) local_unnamed_addr #0 align 2 personality ptr @__gxx_personality_v0 {
  %3 = alloca %"class.std::unique_ptr", align 8
  %4 = load ptr, ptr %1, align 8
  %5 = load ptr, ptr %4, align 8
  %6 = getelementptr inbounds i8, ptr %5, i64 24
  %7 = load ptr, ptr %6, align 8
  call void %7(ptr dead_on_unwind nonnull writable sret(%"class.std::unique_ptr") align 8 %3, ptr noundef nonnull align 8 dereferenceable(8) %4)
  %8 = load ptr, ptr %3, align 8
  store ptr null, ptr %3, align 8
  %9 = load ptr, ptr %0, align 8
  store ptr %8, ptr %0, align 8
  %.not.i.i.i.i = icmp eq ptr %9, null
  br i1 %.not.i.i.i.i, label %_ZNSt10unique_ptrIN3gmx33DensityFittingAmplitudeLookupImplESt14default_deleteIS1_EED2Ev.exit, label %_ZNSt10unique_ptrIN3gmx33DensityFittingAmplitudeLookupImplESt14default_deleteIS1_EEaSEOS4_.exit

_ZNSt10unique_ptrIN3gmx33DensityFittingAmplitudeLookupImplESt14default_deleteIS1_EEaSEOS4_.exit: ; preds = %2
  %10 = load ptr, ptr %9, align 8
  %11 = getelementptr inbounds i8, ptr %10, i64 8
  %12 = load ptr, ptr %11, align 8
  call void %12(ptr noundef nonnull align 8 dereferenceable(8) %9) #13
  %.pr = load ptr, ptr %3, align 8
  %.not.i = icmp eq ptr %.pr, null
  br i1 %.not.i, label %_ZNSt10unique_ptrIN3gmx33DensityFittingAmplitudeLookupImplESt14default_deleteIS1_EED2Ev.exit, label %_ZNKSt14default_deleteIN3gmx33DensityFittingAmplitudeLookupImplEEclEPS1_.exit.i

_ZNKSt14default_deleteIN3gmx33DensityFittingAmplitudeLookupImplEEclEPS1_.exit.i: ; preds = %_ZNSt10unique_ptrIN3gmx33DensityFittingAmplitudeLookupImplESt14default_deleteIS1_EEaSEOS4_.exit
  %13 = load ptr, ptr %.pr, align 8
  %14 = getelementptr inbounds i8, ptr %13, i64 8
  %15 = load ptr, ptr %14, align 8
  call void %15(ptr noundef nonnull align 8 dereferenceable(8) %.pr) #13
  br label %_ZNSt10unique_ptrIN3gmx33DensityFittingAmplitudeLookupImplESt14default_deleteIS1_EED2Ev.exit

_ZNSt10unique_ptrIN3gmx33DensityFittingAmplitudeLookupImplESt14default_deleteIS1_EED2Ev.exit: ; preds = %2, %_ZNSt10unique_ptrIN3gmx33DensityFittingAmplitudeLookupImplESt14default_deleteIS1_EEaSEOS4_.exit, %_ZNKSt14default_deleteIN3gmx33DensityFittingAmplitudeLookupImplEEclEPS1_.exit.i
  ret ptr %0
}